; Function Attrs: nofree nounwind uwtable
define internal i32 @file_puts(ptr noundef readonly captures(none) %0, ptr noundef captures(none) %1) #7 {
  %3 = getelementptr inbounds nuw i8, ptr %0, i64 40
  %4 = load i32, ptr %3, align 8, !tbaa !7
  %.not = icmp eq i32 %4, 0
  br i1 %.not, label %file_write.exit, label %5

5:                                                ; preds = %2
  %6 = tail call i64 @strlen(ptr noundef nonnull dereferenceable(1) %1) #11
  %7 = trunc i64 %6 to i32
  %sext = shl i64 %6, 32
  %8 = ashr exact i64 %sext, 32
  %9 = getelementptr inbounds nuw i8, ptr %0, i64 64
  %10 = load ptr, ptr %9, align 8, !tbaa !18
  %11 = tail call i64 @fwrite(ptr noundef nonnull %1, i64 noundef %8, i64 noundef 1, ptr noundef %10)
  %12 = and i64 %11, 4294967295
  %.not.i = icmp eq i64 %12, 0
  %spec.select.i = select i1 %.not.i, i32 0, i32 %7
  br label %file_write.exit

file_write.exit:                                  ; preds = %2, %5
  %.0.i = phi i32 [ 0, %2 ], [ %spec.select.i, %5 ]
  ret i32 %.0.i
}